target datalayout = "e-m:e-p270:32:32-p271:32:32-p272:64:64-i64:64-i128:128-f80:128-n8:16:32:64-S128"
target triple = "x86_64-pc-linux-gnu"

%struct.view_t = type { ptr, ptr, %struct.lv_style_t, %struct.lv_style_t, %struct.anon }
%struct.lv_style_t = type { ptr, i32, i8 }
%struct.anon = type { ptr, %struct.anon.0, %struct.anon.4 }
%struct.anon.0 = type { ptr, %struct.anon.1, %struct.anon.2, %struct.anon.3 }
%struct.anon.1 = type { ptr, ptr, ptr }
%struct.anon.2 = type { ptr, ptr, ptr, ptr }
%struct.anon.3 = type { ptr, ptr, ptr, ptr, ptr, ptr, ptr, ptr, ptr, ptr, ptr, ptr, ptr, ptr, ptr, ptr, ptr }
%struct.anon.4 = type { ptr, ptr, ptr }

; Function Attrs: nounwind uwtable
define void @flex_loader_attach(ptr noundef %0) #0 {
  %2 = alloca ptr, align 8
  store ptr %0, ptr %2, align 8, !tbaa !3
  %3 = load ptr, ptr %2, align 8, !tbaa !3
  %4 = getelementptr inbounds nuw %struct.view_t, ptr %3, i32 0, i32 4
  %5 = getelementptr inbounds nuw %struct.anon, ptr %4, i32 0, i32 1
  %6 = getelementptr inbounds nuw %struct.anon.0, ptr %5, i32 0, i32 1
  %7 = getelementptr inbounds nuw %struct.anon.1, ptr %6, i32 0, i32 1
  %8 = load ptr, ptr %7, align 8, !tbaa !7
  %9 = load ptr, ptr %2, align 8, !tbaa !3
  %10 = call ptr @lv_obj_add_event_cb(ptr noundef %8, ptr noundef @flex_flow_event_handler, i32 noundef 35, ptr noundef %9)
  br label %11

11:                                               ; preds = %1
  %12 = load ptr, ptr %2, align 8, !tbaa !3
  %13 = getelementptr inbounds nuw %struct.view_t, ptr %12, i32 0, i32 4
  %14 = getelementptr inbounds nuw %struct.anon, ptr %13, i32 0, i32 1
  %15 = getelementptr inbounds nuw %struct.anon.0, ptr %14, i32 0, i32 2
  %16 = getelementptr inbounds nuw %struct.anon.2, ptr %15, i32 0, i32 1
  %17 = load ptr, ptr %16, align 8, !tbaa !17
  %18 = load ptr, ptr %2, align 8, !tbaa !3
  %19 = call ptr @lv_obj_add_event_cb(ptr noundef %17, ptr noundef @flex_align_main_event_handler, i32 noundef 35, ptr noundef %18)
  br label %20

20:                                               ; preds = %11
  br label %21

21:                                               ; preds = %20
  %22 = load ptr, ptr %2, align 8, !tbaa !3
  %23 = getelementptr inbounds nuw %struct.view_t, ptr %22, i32 0, i32 4
  %24 = getelementptr inbounds nuw %struct.anon, ptr %23, i32 0, i32 1
  %25 = getelementptr inbounds nuw %struct.anon.0, ptr %24, i32 0, i32 2
  %26 = getelementptr inbounds nuw %struct.anon.2, ptr %25, i32 0, i32 2
  %27 = load ptr, ptr %26, align 8, !tbaa !18
  %28 = load ptr, ptr %2, align 8, !tbaa !3
  %29 = call ptr @lv_obj_add_event_cb(ptr noundef %27, ptr noundef @flex_align_cross_event_handler, i32 noundef 35, ptr noundef %28)
  br label %30

30:                                               ; preds = %21
  br label %31

31:                                               ; preds = %30
  %32 = load ptr, ptr %2, align 8, !tbaa !3
  %33 = getelementptr inbounds nuw %struct.view_t, ptr %32, i32 0, i32 4
  %34 = getelementptr inbounds nuw %struct.anon, ptr %33, i32 0, i32 1
  %35 = getelementptr inbounds nuw %struct.anon.0, ptr %34, i32 0, i32 2
  %36 = getelementptr inbounds nuw %struct.anon.2, ptr %35, i32 0, i32 3
  %37 = load ptr, ptr %36, align 8, !tbaa !19
  %38 = load ptr, ptr %2, align 8, !tbaa !3
  %39 = call ptr @lv_obj_add_event_cb(ptr noundef %37, ptr noundef @flex_align_track_event_handler, i32 noundef 35, ptr noundef %38)
  br label %40

40:                                               ; preds = %31
  ret void
}