; Function Attrs: nounwind uwtable
define void @flex_loader_attach(ptr noundef %0) local_unnamed_addr #0 {
  %2 = getelementptr inbounds nuw i8, ptr %0, i64 72
  %3 = load ptr, ptr %2, align 8, !tbaa !3
  %4 = tail call ptr @lv_obj_add_event_cb(ptr noundef %3, ptr noundef nonnull @flex_flow_event_handler, i32 noundef 35, ptr noundef %0) #2
  %5 = getelementptr inbounds nuw i8, ptr %0, i64 96
  %6 = load ptr, ptr %5, align 8, !tbaa !16
  %7 = tail call ptr @lv_obj_add_event_cb(ptr noundef %6, ptr noundef nonnull @flex_align_main_event_handler, i32 noundef 35, ptr noundef %0) #2
  %8 = getelementptr inbounds nuw i8, ptr %0, i64 104
  %9 = load ptr, ptr %8, align 8, !tbaa !17
  %10 = tail call ptr @lv_obj_add_event_cb(ptr noundef %9, ptr noundef nonnull @flex_align_cross_event_handler, i32 noundef 35, ptr noundef %0) #2
  %11 = getelementptr inbounds nuw i8, ptr %0, i64 112
  %12 = load ptr, ptr %11, align 8, !tbaa !18
  %13 = tail call ptr @lv_obj_add_event_cb(ptr noundef %12, ptr noundef nonnull @flex_align_track_event_handler, i32 noundef 35, ptr noundef %0) #2
  ret void
}